target datalayout = "e-m:e-p270:32:32-p271:32:32-p272:64:64-i64:64-i128:128-f80:128-n8:16:32:64-S128"
target triple = "x86_64-pc-linux-gnu"

%struct.FunctionCallInfoBaseData = type { ptr, ptr, ptr, i32, i8, i16, [0 x %struct.NullableDatum] }
%struct.NullableDatum = type { i64, i8 }

@.str.2 = private unnamed_addr constant [6 x i8] c"int.c\00", align 1
@.str.5 = private unnamed_addr constant [22 x i8] c"smallint out of range\00", align 1
@__func__.int2mi = private unnamed_addr constant [7 x i8] c"int2mi\00", align 1

; Function Attrs: inlinehint nounwind uwtable
define internal i64 @Int16GetDatum(i16 noundef signext %0) #2 {
  %2 = alloca i16, align 2
  store i16 %0, ptr %2, align 2
  %3 = load i16, ptr %2, align 2
  %4 = sext i16 %3 to i64
  ret i64 %4
}

; Function Attrs: inlinehint nounwind uwtable
define internal zeroext i1 @pg_sub_s16_overflow(i16 noundef signext %0, i16 noundef signext %1, ptr noundef %2) #2 {
  %4 = alloca i16, align 2
  %5 = alloca i16, align 2
  %6 = alloca ptr, align 8
  store i16 %0, ptr %4, align 2
  store i16 %1, ptr %5, align 2
  store ptr %2, ptr %6, align 8
  %7 = load i16, ptr %4, align 2
  %8 = load i16, ptr %5, align 2
  %9 = load ptr, ptr %6, align 8
  %10 = call { i16, i1 } @llvm.ssub.with.overflow.i16(i16 %7, i16 %8)
  %11 = extractvalue { i16, i1 } %10, 1
  %12 = extractvalue { i16, i1 } %10, 0
  store i16 %12, ptr %9, align 2
  ret i1 %11
}

; Function Attrs: inlinehint nounwind uwtable
define internal signext i16 @DatumGetInt16(i64 noundef %0) #2 {
  %2 = alloca i64, align 8
  store i64 %0, ptr %2, align 8
  %3 = load i64, ptr %2, align 8
  %4 = trunc i64 %3 to i16
  ret i16 %4
}

; Function Attrs: nounwind uwtable
define dso_local i64 @int2mi(ptr noundef %0) #0 {
  %2 = alloca ptr, align 8
  %3 = alloca i16, align 2
  %4 = alloca i16, align 2
  %5 = alloca i16, align 2
  store ptr %0, ptr %2, align 8
  call void @llvm.lifetime.start.p0(i64 2, ptr %3) #10
  %6 = load ptr, ptr %2, align 8
  %7 = getelementptr inbounds nuw %struct.FunctionCallInfoBaseData, ptr %6, i32 0, i32 6
  %8 = getelementptr inbounds [0 x %struct.NullableDatum], ptr %7, i64 0, i64 0
  %9 = getelementptr inbounds nuw %struct.NullableDatum, ptr %8, i32 0, i32 0
  %10 = load i64, ptr %9, align 8
  %11 = call signext i16 @DatumGetInt16(i64 noundef %10)
  store i16 %11, ptr %3, align 2
  call void @llvm.lifetime.start.p0(i64 2, ptr %4) #10
  %12 = load ptr, ptr %2, align 8
  %13 = getelementptr inbounds nuw %struct.FunctionCallInfoBaseData, ptr %12, i32 0, i32 6
  %14 = getelementptr inbounds [0 x %struct.NullableDatum], ptr %13, i64 0, i64 1
  %15 = getelementptr inbounds nuw %struct.NullableDatum, ptr %14, i32 0, i32 0
  %16 = load i64, ptr %15, align 8
  %17 = call signext i16 @DatumGetInt16(i64 noundef %16)
  store i16 %17, ptr %4, align 2
  call void @llvm.lifetime.start.p0(i64 2, ptr %5) #10
  %18 = load i16, ptr %3, align 2
  %19 = load i16, ptr %4, align 2
  %20 = call zeroext i1 @pg_sub_s16_overflow(i16 noundef signext %18, i16 noundef signext %19, ptr noundef %5)
  %21 = zext i1 %20 to i32
  %22 = icmp ne i32 %21, 0
  %23 = zext i1 %22 to i32
  %24 = sext i32 %23 to i64
  %25 = call i64 @llvm.expect.i64(i64 %24, i64 0)
  %26 = icmp ne i64 %25, 0
  br i1 %26, label %27, label %39

27:                                               ; preds = %1
  br label %28

28:                                               ; preds = %27
  br i1 true, label %29, label %31

29:                                               ; preds = %28
  %30 = call zeroext i1 @errstart_cold(i32 noundef 21, ptr noundef null) #12
  br i1 %30, label %33, label %36

31:                                               ; preds = %28
  %32 = call zeroext i1 @errstart(i32 noundef 21, ptr noundef null)
  br i1 %32, label %33, label %36

33:                                               ; preds = %31, %29
  %34 = call i32 @errcode(i32 noundef 50331778)
  %35 = call i32 (ptr, ...) @errmsg(ptr noundef @.str.5)
  call void @errfinish(ptr noundef @.str.2, i32 noundef 929, ptr noundef @__func__.int2mi)
  br label %36

36:                                               ; preds = %33, %31, %29
  unreachable

37:                                               ; No predecessors!
  br label %38

38:                                               ; preds = %37
  br label %39

39:                                               ; preds = %38, %1
  %40 = load i16, ptr %5, align 2
  %41 = call i64 @Int16GetDatum(i16 noundef signext %40)
  call void @llvm.lifetime.end.p0(i64 2, ptr %5) #10
  call void @llvm.lifetime.end.p0(i64 2, ptr %4) #10
  call void @llvm.lifetime.end.p0(i64 2, ptr %3) #10
  ret i64 %41
}